target datalayout = "e-m:e-p270:32:32-p271:32:32-p272:64:64-i64:64-i128:128-f80:128-n8:16:32:64-S128"
target triple = "x86_64-pc-linux-gnu"

%struct._zval_struct = type { %union._zend_value, %union.anon.2, %union.anon.5 }
%union._zend_value = type { i64 }
%union.anon.2 = type { i32 }
%union.anon.5 = type { i32 }
%struct._zend_refcounted_h = type { i32, %union.anon.6 }
%union.anon.6 = type { i32 }
%struct._spl_filesystem_object = type { ptr, ptr, ptr, ptr, ptr, i32, i64, ptr, ptr, %union.anon, %struct._zend_object }
%union.anon = type { %struct.anon }
%struct.anon = type { ptr, ptr, i32, ptr, ptr, ptr, %struct._php_stream_dirent }
%struct._php_stream_dirent = type { [256 x i8], i8 }
%struct._zend_object = type { %struct._zend_refcounted_h, i32, ptr, ptr, ptr, [1 x %struct._zval_struct] }
%struct._php_stream = type { ptr, ptr, %struct._php_stream_filter_chain, %struct._php_stream_filter_chain, ptr, ptr, %struct._zval_struct, i16, [16 x i8], i32, ptr, ptr, ptr, ptr, i64, ptr, i64, i64, i64, i64, ptr }
%struct._php_stream_filter_chain = type { ptr, ptr, ptr }
%struct.anon.0 = type { ptr, ptr, ptr, ptr, %struct._zval_struct, ptr, i64, i64, i64, %struct._zval_struct, ptr, i8, i8, i32 }

; Function Attrs: nounwind uwtable
define internal ptr @spl_filesystem_from_obj(ptr noundef %0) #0 {
  %2 = alloca ptr, align 8
  store ptr %0, ptr %2, align 8
  %3 = load ptr, ptr %2, align 8
  %4 = getelementptr inbounds i8, ptr %3, i64 -384
  ret ptr %4
}

; Function Attrs: nounwind uwtable
define internal void @spl_filesystem_object_destroy_object(ptr noundef %0) #0 {
  %2 = alloca ptr, align 8
  %3 = alloca ptr, align 8
  store ptr %0, ptr %2, align 8
  %4 = load ptr, ptr %2, align 8
  %5 = call ptr @spl_filesystem_from_obj(ptr noundef %4)
  store ptr %5, ptr %3, align 8
  %6 = load ptr, ptr %2, align 8
  call void @zend_objects_destroy_object(ptr noundef %6)
  %7 = load ptr, ptr %3, align 8
  %8 = getelementptr inbounds %struct._spl_filesystem_object, ptr %7, i32 0, i32 5
  %9 = load i32, ptr %8, align 8
  switch i32 %9, label %64 [
    i32 1, label %10
    i32 2, label %26
  ]

10:                                               ; preds = %1
  %11 = load ptr, ptr %3, align 8
  %12 = getelementptr inbounds %struct._spl_filesystem_object, ptr %11, i32 0, i32 9
  %13 = getelementptr inbounds %struct.anon, ptr %12, i32 0, i32 0
  %14 = load ptr, ptr %13, align 8
  %15 = icmp ne ptr %14, null
  br i1 %15, label %16, label %25

16:                                               ; preds = %10
  %17 = load ptr, ptr %3, align 8
  %18 = getelementptr inbounds %struct._spl_filesystem_object, ptr %17, i32 0, i32 9
  %19 = getelementptr inbounds %struct.anon, ptr %18, i32 0, i32 0
  %20 = load ptr, ptr %19, align 8
  %21 = call i32 @_php_stream_free(ptr noundef %20, i32 noundef 3)
  %22 = load ptr, ptr %3, align 8
  %23 = getelementptr inbounds %struct._spl_filesystem_object, ptr %22, i32 0, i32 9
  %24 = getelementptr inbounds %struct.anon, ptr %23, i32 0, i32 0
  store ptr null, ptr %24, align 8
  br label %25

25:                                               ; preds = %16, %10
  br label %65

26:                                               ; preds = %1
  %27 = load ptr, ptr %3, align 8
  %28 = getelementptr inbounds %struct._spl_filesystem_object, ptr %27, i32 0, i32 9
  %29 = getelementptr inbounds %struct.anon.0, ptr %28, i32 0, i32 0
  %30 = load ptr, ptr %29, align 8
  %31 = icmp ne ptr %30, null
  br i1 %31, label %32, label %63

32:                                               ; preds = %26
  %33 = load ptr, ptr %3, align 8
  %34 = getelementptr inbounds %struct._spl_filesystem_object, ptr %33, i32 0, i32 9
  %35 = getelementptr inbounds %struct.anon.0, ptr %34, i32 0, i32 0
  %36 = load ptr, ptr %35, align 8
  %37 = getelementptr inbounds %struct._php_stream, ptr %36, i32 0, i32 7
  %38 = load i16, ptr %37, align 8
  %39 = and i16 %38, 1
  %40 = icmp ne i16 %39, 0
  br i1 %40, label %47, label %41

41:                                               ; preds = %32
  %42 = load ptr, ptr %3, align 8
  %43 = getelementptr inbounds %struct._spl_filesystem_object, ptr %42, i32 0, i32 9
  %44 = getelementptr inbounds %struct.anon.0, ptr %43, i32 0, i32 0
  %45 = load ptr, ptr %44, align 8
  %46 = call i32 @_php_stream_free(ptr noundef %45, i32 noundef 3)
  br label %53

47:                                               ; preds = %32
  %48 = load ptr, ptr %3, align 8
  %49 = getelementptr inbounds %struct._spl_filesystem_object, ptr %48, i32 0, i32 9
  %50 = getelementptr inbounds %struct.anon.0, ptr %49, i32 0, i32 0
  %51 = load ptr, ptr %50, align 8
  %52 = call i32 @_php_stream_free(ptr noundef %51, i32 noundef 19)
  br label %53

53:                                               ; preds = %47, %41
  %54 = load ptr, ptr %3, align 8
  %55 = getelementptr inbounds %struct._spl_filesystem_object, ptr %54, i32 0, i32 9
  %56 = getelementptr inbounds %struct.anon.0, ptr %55, i32 0, i32 0
  store ptr null, ptr %56, align 8
  br label %57

57:                                               ; preds = %53
  %58 = load ptr, ptr %3, align 8
  %59 = getelementptr inbounds %struct._spl_filesystem_object, ptr %58, i32 0, i32 9
  %60 = getelementptr inbounds %struct.anon.0, ptr %59, i32 0, i32 9
  %61 = getelementptr inbounds %struct._zval_struct, ptr %60, i32 0, i32 1
  store i32 0, ptr %61, align 8
  br label %62

62:                                               ; preds = %57
  br label %63

63:                                               ; preds = %62, %26
  br label %65

64:                                               ; preds = %1
  br label %65

65:                                               ; preds = %64, %63, %25
  ret void
}