; Function Attrs: nounwind uwtable
define internal void @spl_filesystem_object_destroy_object(ptr noundef %0) #0 {
  tail call void @zend_objects_destroy_object(ptr noundef %0) #18
  %2 = getelementptr inbounds i8, ptr %0, i64 -344
  %3 = load i32, ptr %2, align 8
  switch i32 %3, label %18 [
    i32 1, label %4
    i32 2, label %9
  ]

4:                                                ; preds = %1
  %5 = getelementptr inbounds i8, ptr %0, i64 -312
  %6 = load ptr, ptr %5, align 8
  %.not14 = icmp eq ptr %6, null
  br i1 %.not14, label %18, label %7

7:                                                ; preds = %4
  %8 = tail call i32 @_php_stream_free(ptr noundef nonnull %6, i32 noundef 3) #18
  store ptr null, ptr %5, align 8
  br label %18

9:                                                ; preds = %1
  %10 = getelementptr inbounds i8, ptr %0, i64 -312
  %11 = load ptr, ptr %10, align 8
  %.not = icmp eq ptr %11, null
  br i1 %.not, label %18, label %12

12:                                               ; preds = %9
  %13 = getelementptr inbounds i8, ptr %11, i64 96
  %14 = load i16, ptr %13, align 8
  %15 = and i16 %14, 1
  %.not13 = icmp eq i16 %15, 0
  %. = select i1 %.not13, i32 3, i32 19
  %16 = tail call i32 @_php_stream_free(ptr noundef nonnull %11, i32 noundef %.) #18
  store ptr null, ptr %10, align 8
  %17 = getelementptr inbounds i8, ptr %0, i64 -224
  store i32 0, ptr %17, align 8
  br label %18

18:                                               ; preds = %1, %9, %12, %4, %7
  ret void
}